SF:/home/ezpz/Nextcloud/ObsidianVault/Schule/Module/450 - Applikationen testen/Projekt/ReactRustTodo/backend/src/api/api.rs
FN:72,_RNvNtNtCs7roErOo0dvj_15TodoRustBackend3api3api6config
FN:65,_RNvNtNtCs7roErOo0dvj_15TodoRustBackend3api3api9not_found
FN:9,_RNvNvXNtNtCs7roErOo0dvj_15TodoRustBackend3api3apiNtB4_11create_todoNtNtCs7cDSanGV8t_9actix_web7service18HttpServiceFactory8register11create_todo
FN:25,_RNvNvXs0_NtNtCs7roErOo0dvj_15TodoRustBackend3api3apiNtB7_9get_todosNtNtCs7cDSanGV8t_9actix_web7service18HttpServiceFactory8register9get_todos
FN:30,_RNvNvXs1_NtNtCs7roErOo0dvj_15TodoRustBackend3api3apiNtB7_17delete_todo_by_idNtNtCs7cDSanGV8t_9actix_web7service18HttpServiceFactory8register17delete_todo_by_id
FN:38,_RNvNvXs2_NtNtCs7roErOo0dvj_15TodoRustBackend3api3apiNtB7_17update_todo_by_idNtNtCs7cDSanGV8t_9actix_web7service18HttpServiceFactory8register17update_todo_by_id
FN:58,_RNvNvXs3_NtNtCs7roErOo0dvj_15TodoRustBackend3api3apiNtB7_6healthNtNtCs7cDSanGV8t_9actix_web7service18HttpServiceFactory8register6health
FN:17,_RNvNvXs_NtNtCs7roErOo0dvj_15TodoRustBackend3api3apiNtB6_14get_todo_by_idNtNtCs7cDSanGV8t_9actix_web7service18HttpServiceFactory8register14get_todo_by_id
FN:65,_RNCNvNtNtCs7roErOo0dvj_15TodoRustBackend3api3api9not_found0B7_
FN:9,_RNCNvNvXNtNtCs7roErOo0dvj_15TodoRustBackend3api3apiNtB6_11create_todoNtNtCs7cDSanGV8t_9actix_web7service18HttpServiceFactory8register11create_todo0Ba_
FN:25,_RNCNvNvXs0_NtNtCs7roErOo0dvj_15TodoRustBackend3api3apiNtB9_9get_todosNtNtCs7cDSanGV8t_9actix_web7service18HttpServiceFactory8register9get_todos0Bd_
FN:30,_RNCNvNvXs1_NtNtCs7roErOo0dvj_15TodoRustBackend3api3apiNtB9_17delete_todo_by_idNtNtCs7cDSanGV8t_9actix_web7service18HttpServiceFactory8register17delete_todo_by_id0Bd_
FN:42,_RNCNvNvXs2_NtNtCs7roErOo0dvj_15TodoRustBackend3api3apiNtB9_17update_todo_by_idNtNtCs7cDSanGV8t_9actix_web7service18HttpServiceFactory8register17update_todo_by_id0Bd_
FN:58,_RNCNvNvXs3_NtNtCs7roErOo0dvj_15TodoRustBackend3api3apiNtB9_6healthNtNtCs7cDSanGV8t_9actix_web7service18HttpServiceFactory8register6health0Bd_
FN:17,_RNCNvNvXs_NtNtCs7roErOo0dvj_15TodoRustBackend3api3apiNtB8_14get_todo_by_idNtNtCs7cDSanGV8t_9actix_web7service18HttpServiceFactory8register14get_todo_by_id0Bc_
FN:65,_RNCNvNtNtCs6FteFTQcjxM_15TodoRustBackend3api3api9not_found0B7_
FN:9,_RNCNvNvXNtNtCs6FteFTQcjxM_15TodoRustBackend3api3apiNtB6_11create_todoNtNtCs7cDSanGV8t_9actix_web7service18HttpServiceFactory8register11create_todo0Ba_
FN:25,_RNCNvNvXs0_NtNtCs6FteFTQcjxM_15TodoRustBackend3api3apiNtB9_9get_todosNtNtCs7cDSanGV8t_9actix_web7service18HttpServiceFactory8register9get_todos0Bd_
FN:30,_RNCNvNvXs1_NtNtCs6FteFTQcjxM_15TodoRustBackend3api3apiNtB9_17delete_todo_by_idNtNtCs7cDSanGV8t_9actix_web7service18HttpServiceFactory8register17delete_todo_by_id0Bd_
FN:42,_RNCNvNvXs2_NtNtCs6FteFTQcjxM_15TodoRustBackend3api3apiNtB9_17update_todo_by_idNtNtCs7cDSanGV8t_9actix_web7service18HttpServiceFactory8register17update_todo_by_id0Bd_
FN:58,_RNCNvNvXs3_NtNtCs6FteFTQcjxM_15TodoRustBackend3api3apiNtB9_6healthNtNtCs7cDSanGV8t_9actix_web7service18HttpServiceFactory8register6health0Bd_
FN:17,_RNCNvNvXs_NtNtCs6FteFTQcjxM_15TodoRustBackend3api3apiNtB8_14get_todo_by_idNtNtCs7cDSanGV8t_9actix_web7service18HttpServiceFactory8register14get_todo_by_id0Bc_
FN:72,_RNvNtNtCs6FteFTQcjxM_15TodoRustBackend3api3api6config
FN:65,_RNvNtNtCs6FteFTQcjxM_15TodoRustBackend3api3api9not_found
FN:9,_RNvNvXNtNtCs6FteFTQcjxM_15TodoRustBackend3api3apiNtB4_11create_todoNtNtCs7cDSanGV8t_9actix_web7service18HttpServiceFactory8register11create_todo
FN:25,_RNvNvXs0_NtNtCs6FteFTQcjxM_15TodoRustBackend3api3apiNtB7_9get_todosNtNtCs7cDSanGV8t_9actix_web7service18HttpServiceFactory8register9get_todos
FN:30,_RNvNvXs1_NtNtCs6FteFTQcjxM_15TodoRustBackend3api3apiNtB7_17delete_todo_by_idNtNtCs7cDSanGV8t_9actix_web7service18HttpServiceFactory8register17delete_todo_by_id
FN:38,_RNvNvXs2_NtNtCs6FteFTQcjxM_15TodoRustBackend3api3apiNtB7_17update_todo_by_idNtNtCs7cDSanGV8t_9actix_web7service18HttpServiceFactory8register17update_todo_by_id
FN:58,_RNvNvXs3_NtNtCs6FteFTQcjxM_15TodoRustBackend3api3apiNtB7_6healthNtNtCs7cDSanGV8t_9actix_web7service18HttpServiceFactory8register6health
FN:17,_RNvNvXs_NtNtCs6FteFTQcjxM_15TodoRustBackend3api3apiNtB6_14get_todo_by_idNtNtCs7cDSanGV8t_9actix_web7service18HttpServiceFactory8register14get_todo_by_id
FNDA:12,_RNvNtNtCs7roErOo0dvj_15TodoRustBackend3api3api6config
FNDA:1,_RNvNtNtCs7roErOo0dvj_15TodoRustBackend3api3api9not_found
FNDA:8,_RNvNvXNtNtCs7roErOo0dvj_15TodoRustBackend3api3apiNtB4_11create_todoNtNtCs7cDSanGV8t_9actix_web7service18HttpServiceFactory8register11create_todo
FNDA:2,_RNvNvXs0_NtNtCs7roErOo0dvj_15TodoRustBackend3api3apiNtB7_9get_todosNtNtCs7cDSanGV8t_9actix_web7service18HttpServiceFactory8register9get_todos
FNDA:3,_RNvNvXs1_NtNtCs7roErOo0dvj_15TodoRustBackend3api3apiNtB7_17delete_todo_by_idNtNtCs7cDSanGV8t_9actix_web7service18HttpServiceFactory8register17delete_todo_by_id
FNDA:3,_RNvNvXs2_NtNtCs7roErOo0dvj_15TodoRustBackend3api3apiNtB7_17update_todo_by_idNtNtCs7cDSanGV8t_9actix_web7service18HttpServiceFactory8register17update_todo_by_id
FNDA:1,_RNvNvXs3_NtNtCs7roErOo0dvj_15TodoRustBackend3api3apiNtB7_6healthNtNtCs7cDSanGV8t_9actix_web7service18HttpServiceFactory8register6health
FNDA:5,_RNvNvXs_NtNtCs7roErOo0dvj_15TodoRustBackend3api3apiNtB6_14get_todo_by_idNtNtCs7cDSanGV8t_9actix_web7service18HttpServiceFactory8register14get_todo_by_id
FNDA:1,_RNCNvNtNtCs7roErOo0dvj_15TodoRustBackend3api3api9not_found0B7_
FNDA:8,_RNCNvNvXNtNtCs7roErOo0dvj_15TodoRustBackend3api3apiNtB6_11create_todoNtNtCs7cDSanGV8t_9actix_web7service18HttpServiceFactory8register11create_todo0Ba_
FNDA:2,_RNCNvNvXs0_NtNtCs7roErOo0dvj_15TodoRustBackend3api3apiNtB9_9get_todosNtNtCs7cDSanGV8t_9actix_web7service18HttpServiceFactory8register9get_todos0Bd_
FNDA:3,_RNCNvNvXs1_NtNtCs7roErOo0dvj_15TodoRustBackend3api3apiNtB9_17delete_todo_by_idNtNtCs7cDSanGV8t_9actix_web7service18HttpServiceFactory8register17delete_todo_by_id0Bd_
FNDA:3,_RNCNvNvXs2_NtNtCs7roErOo0dvj_15TodoRustBackend3api3apiNtB9_17update_todo_by_idNtNtCs7cDSanGV8t_9actix_web7service18HttpServiceFactory8register17update_todo_by_id0Bd_
FNDA:1,_RNCNvNvXs3_NtNtCs7roErOo0dvj_15TodoRustBackend3api3apiNtB9_6healthNtNtCs7cDSanGV8t_9actix_web7service18HttpServiceFactory8register6health0Bd_
FNDA:5,_RNCNvNvXs_NtNtCs7roErOo0dvj_15TodoRustBackend3api3apiNtB8_14get_todo_by_idNtNtCs7cDSanGV8t_9actix_web7service18HttpServiceFactory8register14get_todo_by_id0Bc_
FNDA:0,_RNCNvNtNtCs6FteFTQcjxM_15TodoRustBackend3api3api9not_found0B7_
FNDA:0,_RNCNvNvXNtNtCs6FteFTQcjxM_15TodoRustBackend3api3apiNtB6_11create_todoNtNtCs7cDSanGV8t_9actix_web7service18HttpServiceFactory8register11create_todo0Ba_
FNDA:0,_RNCNvNvXs0_NtNtCs6FteFTQcjxM_15TodoRustBackend3api3apiNtB9_9get_todosNtNtCs7cDSanGV8t_9actix_web7service18HttpServiceFactory8register9get_todos0Bd_
FNDA:0,_RNCNvNvXs1_NtNtCs6FteFTQcjxM_15TodoRustBackend3api3apiNtB9_17delete_todo_by_idNtNtCs7cDSanGV8t_9actix_web7service18HttpServiceFactory8register17delete_todo_by_id0Bd_
FNDA:0,_RNCNvNvXs2_NtNtCs6FteFTQcjxM_15TodoRustBackend3api3apiNtB9_17update_todo_by_idNtNtCs7cDSanGV8t_9actix_web7service18HttpServiceFactory8register17update_todo_by_id0Bd_
FNDA:0,_RNCNvNvXs3_NtNtCs6FteFTQcjxM_15TodoRustBackend3api3apiNtB9_6healthNtNtCs7cDSanGV8t_9actix_web7service18HttpServiceFactory8register6health0Bd_
FNDA:0,_RNCNvNvXs_NtNtCs6FteFTQcjxM_15TodoRustBackend3api3apiNtB8_14get_todo_by_idNtNtCs7cDSanGV8t_9actix_web7service18HttpServiceFactory8register14get_todo_by_id0Bc_
FNDA:0,_RNvNtNtCs6FteFTQcjxM_15TodoRustBackend3api3api6config
FNDA:0,_RNvNtNtCs6FteFTQcjxM_15TodoRustBackend3api3api9not_found
FNDA:0,_RNvNvXNtNtCs6FteFTQcjxM_15TodoRustBackend3api3apiNtB4_11create_todoNtNtCs7cDSanGV8t_9actix_web7service18HttpServiceFactory8register11create_todo
FNDA:0,_RNvNvXs0_NtNtCs6FteFTQcjxM_15TodoRustBackend3api3apiNtB7_9get_todosNtNtCs7cDSanGV8t_9actix_web7service18HttpServiceFactory8register9get_todos
FNDA:0,_RNvNvXs1_NtNtCs6FteFTQcjxM_15TodoRustBackend3api3apiNtB7_17delete_todo_by_idNtNtCs7cDSanGV8t_9actix_web7service18HttpServiceFactory8register17delete_todo_by_id
FNDA:0,_RNvNvXs2_NtNtCs6FteFTQcjxM_15TodoRustBackend3api3apiNtB7_17update_todo_by_idNtNtCs7cDSanGV8t_9actix_web7service18HttpServiceFactory8register17update_todo_by_id
FNDA:0,_RNvNvXs3_NtNtCs6FteFTQcjxM_15TodoRustBackend3api3apiNtB7_6healthNtNtCs7cDSanGV8t_9actix_web7service18HttpServiceFactory8register6health
FNDA:0,_RNvNvXs_NtNtCs6FteFTQcjxM_15TodoRustBackend3api3apiNtB6_14get_todo_by_idNtNtCs7cDSanGV8t_9actix_web7service18HttpServiceFactory8register14get_todo_by_id
FNF:15
FNH:15
DA:9,8
DA:10,8
DA:11,8
DA:12,0
DA:14,8
DA:17,5
DA:18,5
DA:19,2
DA:20,3
DA:22,5
DA:25,2
DA:26,2
DA:27,2
DA:30,3
DA:31,3
DA:32,2
DA:33,1
DA:35,3
DA:38,3
DA:39,3
DA:40,3
DA:41,3
DA:42,3
DA:43,3
DA:44,3
DA:45,3
DA:47,2
DA:48,1
DA:50,3
DA:58,1
DA:59,1
DA:60,1
DA:61,1
DA:62,1
DA:63,1
DA:65,1
DA:66,1
DA:67,1
DA:68,1
DA:69,1
DA:70,1
DA:72,12
DA:73,12
DA:74,12
DA:75,12
DA:76,12
DA:77,12
DA:78,12
DA:79,12
DA:80,12
DA:81,12
DA:83,12
BRF:0
BRH:0
LF:59
LH:58
end_of_record
SF:/home/ezpz/Nextcloud/ObsidianVault/Schule/Module/450 - Applikationen testen/Projekt/ReactRustTodo/backend/src/repository/mem_repo.rs
FN:39,_RNCNCNvXs0_NtNtCs7roErOo0dvj_15TodoRustBackend10repository8mem_repoNtB9_7MemRepoNtNtBb_9todo_repo8TodoRepo14get_todo_by_id00Bd_
FN:45,_RNCNCNvXs0_NtNtCs7roErOo0dvj_15TodoRustBackend10repository8mem_repoNtB9_7MemRepoNtNtBb_9todo_repo8TodoRepo17delete_todo_by_id00Bd_
FN:55,_RNCNCNvXs0_NtNtCs7roErOo0dvj_15TodoRustBackend10repository8mem_repoNtB9_7MemRepoNtNtBb_9todo_repo8TodoRepo17update_todo_by_id00Bd_
FN:39,_RNCNCNvXs0_NtNtCs6FteFTQcjxM_15TodoRustBackend10repository8mem_repoNtB9_7MemRepoNtNtBb_9todo_repo8TodoRepo14get_todo_by_id00Bd_
FN:45,_RNCNCNvXs0_NtNtCs6FteFTQcjxM_15TodoRustBackend10repository8mem_repoNtB9_7MemRepoNtNtBb_9todo_repo8TodoRepo17delete_todo_by_id00Bd_
FN:55,_RNCNCNvXs0_NtNtCs6FteFTQcjxM_15TodoRustBackend10repository8mem_repoNtB9_7MemRepoNtNtBb_9todo_repo8TodoRepo17update_todo_by_id00Bd_
FN:20,_RNvXs0_NtNtCs6FteFTQcjxM_15TodoRustBackend10repository8mem_repoNtB5_7MemRepoNtNtB7_9todo_repo8TodoRepo11create_todo
FN:34,_RNvXs0_NtNtCs6FteFTQcjxM_15TodoRustBackend10repository8mem_repoNtB5_7MemRepoNtNtB7_9todo_repo8TodoRepo14get_todo_by_id
FN:43,_RNvXs0_NtNtCs6FteFTQcjxM_15TodoRustBackend10repository8mem_repoNtB5_7MemRepoNtNtB7_9todo_repo8TodoRepo17delete_todo_by_id
FN:53,_RNvXs0_NtNtCs6FteFTQcjxM_15TodoRustBackend10repository8mem_repoNtB5_7MemRepoNtNtB7_9todo_repo8TodoRepo17update_todo_by_id
FN:16,_RNvXs0_NtNtCs6FteFTQcjxM_15TodoRustBackend10repository8mem_repoNtB5_7MemRepoNtNtB7_9todo_repo8TodoRepo9get_todos
FN:20,_RNvXs0_NtNtCs7roErOo0dvj_15TodoRustBackend10repository8mem_repoNtB5_7MemRepoNtNtB7_9todo_repo8TodoRepo11create_todo
FN:34,_RNvXs0_NtNtCs7roErOo0dvj_15TodoRustBackend10repository8mem_repoNtB5_7MemRepoNtNtB7_9todo_repo8TodoRepo14get_todo_by_id
FN:43,_RNvXs0_NtNtCs7roErOo0dvj_15TodoRustBackend10repository8mem_repoNtB5_7MemRepoNtNtB7_9todo_repo8TodoRepo17delete_todo_by_id
FN:53,_RNvXs0_NtNtCs7roErOo0dvj_15TodoRustBackend10repository8mem_repoNtB5_7MemRepoNtNtB7_9todo_repo8TodoRepo17update_todo_by_id
FN:16,_RNvXs0_NtNtCs7roErOo0dvj_15TodoRustBackend10repository8mem_repoNtB5_7MemRepoNtNtB7_9todo_repo8TodoRepo9get_todos
FNDA:26,_RNCNCNvXs0_NtNtCs7roErOo0dvj_15TodoRustBackend10repository8mem_repoNtB9_7MemRepoNtNtBb_9todo_repo8TodoRepo14get_todo_by_id00Bd_
FNDA:12,_RNCNCNvXs0_NtNtCs7roErOo0dvj_15TodoRustBackend10repository8mem_repoNtB9_7MemRepoNtNtBb_9todo_repo8TodoRepo17delete_todo_by_id00Bd_
FNDA:8,_RNCNCNvXs0_NtNtCs7roErOo0dvj_15TodoRustBackend10repository8mem_repoNtB9_7MemRepoNtNtBb_9todo_repo8TodoRepo17update_todo_by_id00Bd_
FNDA:0,_RNCNCNvXs0_NtNtCs6FteFTQcjxM_15TodoRustBackend10repository8mem_repoNtB9_7MemRepoNtNtBb_9todo_repo8TodoRepo14get_todo_by_id00Bd_
FNDA:0,_RNCNCNvXs0_NtNtCs6FteFTQcjxM_15TodoRustBackend10repository8mem_repoNtB9_7MemRepoNtNtBb_9todo_repo8TodoRepo17delete_todo_by_id00Bd_
FNDA:0,_RNCNCNvXs0_NtNtCs6FteFTQcjxM_15TodoRustBackend10repository8mem_repoNtB9_7MemRepoNtNtBb_9todo_repo8TodoRepo17update_todo_by_id00Bd_
FNDA:0,_RNvXs0_NtNtCs6FteFTQcjxM_15TodoRustBackend10repository8mem_repoNtB5_7MemRepoNtNtB7_9todo_repo8TodoRepo11create_todo
FNDA:0,_RNvXs0_NtNtCs6FteFTQcjxM_15TodoRustBackend10repository8mem_repoNtB5_7MemRepoNtNtB7_9todo_repo8TodoRepo14get_todo_by_id
FNDA:0,_RNvXs0_NtNtCs6FteFTQcjxM_15TodoRustBackend10repository8mem_repoNtB5_7MemRepoNtNtB7_9todo_repo8TodoRepo17delete_todo_by_id
FNDA:0,_RNvXs0_NtNtCs6FteFTQcjxM_15TodoRustBackend10repository8mem_repoNtB5_7MemRepoNtNtB7_9todo_repo8TodoRepo17update_todo_by_id
FNDA:0,_RNvXs0_NtNtCs6FteFTQcjxM_15TodoRustBackend10repository8mem_repoNtB5_7MemRepoNtNtB7_9todo_repo8TodoRepo9get_todos
FNDA:56,_RNvXs0_NtNtCs7roErOo0dvj_15TodoRustBackend10repository8mem_repoNtB5_7MemRepoNtNtB7_9todo_repo8TodoRepo11create_todo
FNDA:27,_RNvXs0_NtNtCs7roErOo0dvj_15TodoRustBackend10repository8mem_repoNtB5_7MemRepoNtNtB7_9todo_repo8TodoRepo14get_todo_by_id
FNDA:13,_RNvXs0_NtNtCs7roErOo0dvj_15TodoRustBackend10repository8mem_repoNtB5_7MemRepoNtNtB7_9todo_repo8TodoRepo17delete_todo_by_id
FNDA:11,_RNvXs0_NtNtCs7roErOo0dvj_15TodoRustBackend10repository8mem_repoNtB5_7MemRepoNtNtB7_9todo_repo8TodoRepo17update_todo_by_id
FNDA:10,_RNvXs0_NtNtCs7roErOo0dvj_15TodoRustBackend10repository8mem_repoNtB5_7MemRepoNtNtB7_9todo_repo8TodoRepo9get_todos
FNF:8
FNH:8
DA:16,10
DA:18,10
DA:20,56
DA:32,56
DA:34,27
DA:39,26
DA:41,27
DA:43,13
DA:45,12
DA:51,13
DA:53,11
DA:55,8
DA:61,11
BRF:0
BRH:0
LF:13
LH:13
end_of_record